target datalayout = "e-m:e-p270:32:32-p271:32:32-p272:64:64-i64:64-i128:128-f80:128-n8:16:32:64-S128"
target triple = "x86_64-pc-linux-gnu"

@hf_smb2_qfid_fid = internal global i32 0, align 4
@ett_smb2_QFid_buffer = internal global i32 0, align 4
@.str.2231 = private unnamed_addr constant [12 x i8] c": QFid INFO\00", align 1
@.str.2232 = private unnamed_addr constant [10 x i8] c"QFid INFO\00", align 1

; Function Attrs: null_pointer_is_valid sspstrong uwtable
define internal void @dissect_smb2_QFid_buffer_response(ptr noundef %0, ptr noundef %1, ptr noundef %2, ptr noundef %3) #0 {
  %5 = alloca ptr, align 8
  %6 = alloca ptr, align 8
  %7 = alloca ptr, align 8
  %8 = alloca ptr, align 8
  %9 = alloca i32, align 4
  %10 = alloca ptr, align 8
  %11 = alloca ptr, align 8
  store ptr %0, ptr %5, align 8
  store ptr %1, ptr %6, align 8
  store ptr %2, ptr %7, align 8
  store ptr %3, ptr %8, align 8
  call void @llvm.lifetime.start.p0(i64 4, ptr %9) #13
  store i32 0, ptr %9, align 4
  call void @llvm.lifetime.start.p0(i64 8, ptr %10) #13
  store ptr null, ptr %10, align 8
  call void @llvm.lifetime.start.p0(i64 8, ptr %11) #13
  %12 = load ptr, ptr %7, align 8
  %13 = call ptr @proto_tree_get_parent(ptr noundef %12)
  store ptr %13, ptr %10, align 8
  %14 = load ptr, ptr %10, align 8
  call void (ptr, ptr, ...) @proto_item_append_text(ptr noundef %14, ptr noundef @.str.2231)
  %15 = load ptr, ptr %7, align 8
  %16 = load ptr, ptr %5, align 8
  %17 = load i32, ptr %9, align 4
  %18 = load i32, ptr @ett_smb2_QFid_buffer, align 4
  %19 = call ptr @proto_tree_add_subtree(ptr noundef %15, ptr noundef %16, i32 noundef %17, i32 noundef -1, i32 noundef %18, ptr noundef null, ptr noundef @.str.2232)
  store ptr %19, ptr %11, align 8
  %20 = load ptr, ptr %11, align 8
  %21 = load i32, ptr @hf_smb2_qfid_fid, align 4
  %22 = load ptr, ptr %5, align 8
  %23 = load i32, ptr %9, align 4
  %24 = call ptr @proto_tree_add_item(ptr noundef %20, i32 noundef %21, ptr noundef %22, i32 noundef %23, i32 noundef 32, i32 noundef 0)
  call void @llvm.lifetime.end.p0(i64 8, ptr %11) #13
  call void @llvm.lifetime.end.p0(i64 8, ptr %10) #13
  call void @llvm.lifetime.end.p0(i64 4, ptr %9) #13
  ret void
}