; Function Attrs: null_pointer_is_valid sspstrong uwtable
define internal void @dissect_smb2_QFid_buffer_response(ptr noundef %0, ptr readnone captures(none) %1, ptr noundef %2, ptr readnone captures(none) %3) #0 {
  %5 = tail call ptr @proto_tree_get_parent(ptr noundef %2)
  tail call void (ptr, ptr, ...) @proto_item_append_text(ptr noundef %5, ptr noundef nonnull @.str.2231)
  %6 = load i32, ptr @ett_smb2_QFid_buffer, align 4
  %7 = tail call ptr @proto_tree_add_subtree(ptr noundef %2, ptr noundef %0, i32 noundef 0, i32 noundef -1, i32 noundef %6, ptr noundef null, ptr noundef nonnull @.str.2232)
  %8 = load i32, ptr @hf_smb2_qfid_fid, align 4
  %9 = tail call ptr @proto_tree_add_item(ptr noundef %7, i32 noundef %8, ptr noundef %0, i32 noundef 0, i32 noundef 32, i32 noundef 0)
  ret void
}